; Function Attrs: mustprogress nounwind uwtable
define noundef ptr @_ZNK19OpenColorIO_v2_5dev7Context16resolveStringVarEPKcRSt10shared_ptrIS0_E(ptr noundef nonnull readonly align 8 captures(none) dereferenceable(8) %0, ptr noundef %1, ptr noundef nonnull align 8 dereferenceable(16) %2) local_unnamed_addr #6 align 2 personality ptr @__gxx_personality_v0 {
  %4 = load ptr, ptr %0, align 8, !tbaa !61
  %5 = getelementptr inbounds nuw i8, ptr %4, i64 272
  %6 = tail call noundef i32 @pthread_mutex_lock(ptr noundef nonnull align 8 dereferenceable(40) %5) #27
  %.not.i.i = icmp eq i32 %6, 0
  br i1 %.not.i.i, label %_ZNSt10lock_guardISt5mutexEC2ERS0_.exit, label %7

7:                                                ; preds = %3
  invoke void @_ZSt20__throw_system_errori(i32 noundef %6) #29
          to label %.noexc unwind label %11

.noexc:                                           ; preds = %7
  unreachable

_ZNSt10lock_guardISt5mutexEC2ERS0_.exit:          ; preds = %3
  %8 = load ptr, ptr %0, align 8, !tbaa !61
  %9 = tail call noundef ptr @_ZNK19OpenColorIO_v2_5dev7Context4Impl16resolveStringVarEPKcRSt10shared_ptrIS0_E(ptr noundef nonnull align 8 dereferenceable(328) %8, ptr noundef %1, ptr noundef nonnull align 8 dereferenceable(16) %2) #27
  %10 = tail call noundef i32 @pthread_mutex_unlock(ptr noundef nonnull align 8 dereferenceable(40) %5) #27
  ret ptr %9

11:                                               ; preds = %7
  %12 = landingpad { ptr, i32 }
          catch ptr null
  %13 = extractvalue { ptr, i32 } %12, 0
  tail call void @__clang_call_terminate(ptr %13) #30
  unreachable
}